target datalayout = "e-m:e-p270:32:32-p271:32:32-p272:64:64-i64:64-i128:128-f80:128-n8:16:32:64-S128"
target triple = "x86_64-pc-linux-gnu"

%struct.asn1_string_table_st = type { i32, i64, i64, i64, i64 }

@global_mask = internal global i64 8192, align 8
@stable = internal global ptr null, align 8

; Function Attrs: nounwind uwtable
define internal ptr @OBJ_bsearch_table(ptr noundef %0, ptr noundef %1, i32 noundef %2) #0 {
  %4 = alloca ptr, align 8
  %5 = alloca ptr, align 8
  %6 = alloca i32, align 4
  store ptr %0, ptr %4, align 8, !tbaa !17
  store ptr %1, ptr %5, align 8, !tbaa !17
  store i32 %2, ptr %6, align 4, !tbaa !13
  %7 = load ptr, ptr %4, align 8, !tbaa !17
  %8 = load ptr, ptr %5, align 8, !tbaa !17
  %9 = load i32, ptr %6, align 4, !tbaa !13
  %10 = call ptr @OBJ_bsearch_(ptr noundef %7, ptr noundef %8, i32 noundef %9, i32 noundef 40, ptr noundef @table_cmp_BSEARCH_CMP_FN)
  ret ptr %10
}

; Function Attrs: inlinehint nounwind uwtable
define internal ptr @ossl_check_const_ASN1_STRING_TABLE_sk_type(ptr noundef %0) #5 {
  %2 = alloca ptr, align 8
  store ptr %0, ptr %2, align 8, !tbaa !25
  %3 = load ptr, ptr %2, align 8, !tbaa !25
  ret ptr %3
}

; Function Attrs: inlinehint nounwind uwtable
define internal ptr @ossl_check_ASN1_STRING_TABLE_type(ptr noundef %0) #5 {
  %2 = alloca ptr, align 8
  store ptr %0, ptr %2, align 8, !tbaa !17
  %3 = load ptr, ptr %2, align 8, !tbaa !17
  ret ptr %3
}

; Function Attrs: inlinehint nounwind uwtable
define internal ptr @ossl_check_ASN1_STRING_TABLE_sk_type(ptr noundef %0) #5 {
  %2 = alloca ptr, align 8
  store ptr %0, ptr %2, align 8, !tbaa !25
  %3 = load ptr, ptr %2, align 8, !tbaa !25
  ret ptr %3
}

; Function Attrs: nounwind uwtable
define ptr @ASN1_STRING_TABLE_get(i32 noundef %0) #0 {
  %2 = alloca ptr, align 8
  %3 = alloca i32, align 4
  %4 = alloca i32, align 4
  %5 = alloca %struct.asn1_string_table_st, align 8
  %6 = alloca i32, align 4
  store i32 %0, ptr %3, align 4, !tbaa !13
  call void @llvm.lifetime.start.p0(i64 4, ptr %4) #6
  call void @llvm.lifetime.start.p0(i64 40, ptr %5) #6
  %7 = call i32 @OPENSSL_init_crypto(i64 noundef 64, ptr noundef null)
  %8 = load i32, ptr %3, align 4, !tbaa !13
  %9 = getelementptr inbounds nuw %struct.asn1_string_table_st, ptr %5, i32 0, i32 0
  store i32 %8, ptr %9, align 8, !tbaa !24
  %10 = load ptr, ptr @stable, align 8, !tbaa !25
  %11 = icmp ne ptr %10, null
  br i1 %11, label %12, label %27

12:                                               ; preds = %1
  %13 = load ptr, ptr @stable, align 8, !tbaa !25
  %14 = call ptr @ossl_check_ASN1_STRING_TABLE_sk_type(ptr noundef %13)
  call void @OPENSSL_sk_sort(ptr noundef %14)
  %15 = load ptr, ptr @stable, align 8, !tbaa !25
  %16 = call ptr @ossl_check_ASN1_STRING_TABLE_sk_type(ptr noundef %15)
  %17 = call ptr @ossl_check_ASN1_STRING_TABLE_type(ptr noundef %5)
  %18 = call i32 @OPENSSL_sk_find(ptr noundef %16, ptr noundef %17)
  store i32 %18, ptr %4, align 4, !tbaa !13
  %19 = load i32, ptr %4, align 4, !tbaa !13
  %20 = icmp sge i32 %19, 0
  br i1 %20, label %21, label %26

21:                                               ; preds = %12
  %22 = load ptr, ptr @stable, align 8, !tbaa !25
  %23 = call ptr @ossl_check_const_ASN1_STRING_TABLE_sk_type(ptr noundef %22)
  %24 = load i32, ptr %4, align 4, !tbaa !13
  %25 = call ptr @OPENSSL_sk_value(ptr noundef %23, i32 noundef %24)
  store ptr %25, ptr %2, align 8
  store i32 1, ptr %6, align 4
  br label %29

26:                                               ; preds = %12
  br label %27

27:                                               ; preds = %26, %1
  %28 = call ptr @OBJ_bsearch_table(ptr noundef %5, ptr noundef @tbl_standard, i32 noundef 28)
  store ptr %28, ptr %2, align 8
  store i32 1, ptr %6, align 4
  br label %29

29:                                               ; preds = %27, %21
  call void @llvm.lifetime.end.p0(i64 40, ptr %5) #6
  call void @llvm.lifetime.end.p0(i64 4, ptr %4) #6
  %30 = load ptr, ptr %2, align 8
  ret ptr %30
}

; Function Attrs: nounwind uwtable
define ptr @ASN1_STRING_set_by_NID(ptr noundef %0, ptr noundef %1, i32 noundef %2, i32 noundef %3, i32 noundef %4) #0 {
  %6 = alloca ptr, align 8
  %7 = alloca ptr, align 8
  %8 = alloca ptr, align 8
  %9 = alloca i32, align 4
  %10 = alloca i32, align 4
  %11 = alloca i32, align 4
  %12 = alloca ptr, align 8
  %13 = alloca ptr, align 8
  %14 = alloca i64, align 8
  %15 = alloca i32, align 4
  %16 = alloca i32, align 4
  store ptr %0, ptr %7, align 8, !tbaa !11
  store ptr %1, ptr %8, align 8, !tbaa !7
  store i32 %2, ptr %9, align 4, !tbaa !13
  store i32 %3, ptr %10, align 4, !tbaa !13
  store i32 %4, ptr %11, align 4, !tbaa !13
  call void @llvm.lifetime.start.p0(i64 8, ptr %12) #6
  call void @llvm.lifetime.start.p0(i64 8, ptr %13) #6
  store ptr null, ptr %13, align 8, !tbaa !15
  call void @llvm.lifetime.start.p0(i64 8, ptr %14) #6
  call void @llvm.lifetime.start.p0(i64 4, ptr %15) #6
  %17 = load ptr, ptr %7, align 8, !tbaa !11
  %18 = icmp eq ptr %17, null
  br i1 %18, label %19, label %20

19:                                               ; preds = %5
  store ptr %13, ptr %7, align 8, !tbaa !11
  br label %20

20:                                               ; preds = %19, %5
  %21 = load i32, ptr %11, align 4, !tbaa !13
  %22 = call ptr @ASN1_STRING_TABLE_get(i32 noundef %21)
  store ptr %22, ptr %12, align 8, !tbaa !17
  %23 = load ptr, ptr %12, align 8, !tbaa !17
  %24 = icmp ne ptr %23, null
  br i1 %24, label %25, label %51

25:                                               ; preds = %20
  %26 = load ptr, ptr %12, align 8, !tbaa !17
  %27 = getelementptr inbounds nuw %struct.asn1_string_table_st, ptr %26, i32 0, i32 3
  %28 = load i64, ptr %27, align 8, !tbaa !19
  store i64 %28, ptr %14, align 8, !tbaa !3
  %29 = load ptr, ptr %12, align 8, !tbaa !17
  %30 = getelementptr inbounds nuw %struct.asn1_string_table_st, ptr %29, i32 0, i32 4
  %31 = load i64, ptr %30, align 8, !tbaa !21
  %32 = and i64 %31, 2
  %33 = icmp ne i64 %32, 0
  br i1 %33, label %38, label %34

34:                                               ; preds = %25
  %35 = load i64, ptr @global_mask, align 8, !tbaa !3
  %36 = load i64, ptr %14, align 8, !tbaa !3
  %37 = and i64 %36, %35
  store i64 %37, ptr %14, align 8, !tbaa !3
  br label %38

38:                                               ; preds = %34, %25
  %39 = load ptr, ptr %7, align 8, !tbaa !11
  %40 = load ptr, ptr %8, align 8, !tbaa !7
  %41 = load i32, ptr %9, align 4, !tbaa !13
  %42 = load i32, ptr %10, align 4, !tbaa !13
  %43 = load i64, ptr %14, align 8, !tbaa !3
  %44 = load ptr, ptr %12, align 8, !tbaa !17
  %45 = getelementptr inbounds nuw %struct.asn1_string_table_st, ptr %44, i32 0, i32 1
  %46 = load i64, ptr %45, align 8, !tbaa !22
  %47 = load ptr, ptr %12, align 8, !tbaa !17
  %48 = getelementptr inbounds nuw %struct.asn1_string_table_st, ptr %47, i32 0, i32 2
  %49 = load i64, ptr %48, align 8, !tbaa !23
  %50 = call i32 @ASN1_mbstring_ncopy(ptr noundef %39, ptr noundef %40, i32 noundef %41, i32 noundef %42, i64 noundef %43, i64 noundef %46, i64 noundef %49)
  store i32 %50, ptr %15, align 4, !tbaa !13
  br label %59

51:                                               ; preds = %20
  %52 = load ptr, ptr %7, align 8, !tbaa !11
  %53 = load ptr, ptr %8, align 8, !tbaa !7
  %54 = load i32, ptr %9, align 4, !tbaa !13
  %55 = load i32, ptr %10, align 4, !tbaa !13
  %56 = load i64, ptr @global_mask, align 8, !tbaa !3
  %57 = and i64 10246, %56
  %58 = call i32 @ASN1_mbstring_copy(ptr noundef %52, ptr noundef %53, i32 noundef %54, i32 noundef %55, i64 noundef %57)
  store i32 %58, ptr %15, align 4, !tbaa !13
  br label %59

59:                                               ; preds = %51, %38
  %60 = load i32, ptr %15, align 4, !tbaa !13
  %61 = icmp sle i32 %60, 0
  br i1 %61, label %62, label %63

62:                                               ; preds = %59
  store ptr null, ptr %6, align 8
  store i32 1, ptr %16, align 4
  br label %66

63:                                               ; preds = %59
  %64 = load ptr, ptr %7, align 8, !tbaa !11
  %65 = load ptr, ptr %64, align 8, !tbaa !15
  store ptr %65, ptr %6, align 8
  store i32 1, ptr %16, align 4
  br label %66

66:                                               ; preds = %63, %62
  call void @llvm.lifetime.end.p0(i64 4, ptr %15) #6
  call void @llvm.lifetime.end.p0(i64 8, ptr %14) #6
  call void @llvm.lifetime.end.p0(i64 8, ptr %13) #6
  call void @llvm.lifetime.end.p0(i64 8, ptr %12) #6
  %67 = load ptr, ptr %6, align 8
  ret ptr %67
}