; Function Attrs: nounwind uwtable
define ptr @ASN1_STRING_set_by_NID(ptr noundef %0, ptr noundef %1, i32 noundef %2, i32 noundef %3, i32 noundef %4) local_unnamed_addr #6 {
  %6 = alloca %struct.asn1_string_table_st, align 8
  %7 = alloca ptr, align 8
  call void @llvm.lifetime.start.p0(i64 8, ptr nonnull %7) #11
  store ptr null, ptr %7, align 8, !tbaa !11
  %8 = icmp eq ptr %0, null
  %spec.store.select = select i1 %8, ptr %7, ptr %0
  call void @llvm.lifetime.start.p0(i64 40, ptr nonnull %6) #11
  %9 = tail call i32 @OPENSSL_init_crypto(i64 noundef 64, ptr noundef null) #11
  store i32 %4, ptr %6, align 8, !tbaa !13
  %10 = load ptr, ptr @stable, align 8, !tbaa !16
  %.not.i = icmp eq ptr %10, null
  br i1 %.not.i, label %18, label %11

11:                                               ; preds = %5
  tail call void @OPENSSL_sk_sort(ptr noundef nonnull %10) #11
  %12 = load ptr, ptr @stable, align 8, !tbaa !16
  %13 = call i32 @OPENSSL_sk_find(ptr noundef %12, ptr noundef nonnull %6) #11
  %14 = icmp sgt i32 %13, -1
  br i1 %14, label %15, label %18

15:                                               ; preds = %11
  %16 = load ptr, ptr @stable, align 8, !tbaa !16
  %17 = call ptr @OPENSSL_sk_value(ptr noundef %16, i32 noundef %13) #11
  br label %ASN1_STRING_TABLE_get.exit

18:                                               ; preds = %11, %5
  %19 = call ptr @OBJ_bsearch_(ptr noundef nonnull %6, ptr noundef nonnull @tbl_standard, i32 noundef 28, i32 noundef 40, ptr noundef nonnull @table_cmp_BSEARCH_CMP_FN) #11
  br label %ASN1_STRING_TABLE_get.exit

ASN1_STRING_TABLE_get.exit:                       ; preds = %15, %18
  %.0.i = phi ptr [ %17, %15 ], [ %19, %18 ]
  call void @llvm.lifetime.end.p0(i64 40, ptr nonnull %6) #11
  %.not = icmp eq ptr %.0.i, null
  br i1 %.not, label %33, label %20

20:                                               ; preds = %ASN1_STRING_TABLE_get.exit
  %21 = getelementptr inbounds nuw i8, ptr %.0.i, i64 24
  %22 = load i64, ptr %21, align 8, !tbaa !18
  %23 = getelementptr inbounds nuw i8, ptr %.0.i, i64 32
  %24 = load i64, ptr %23, align 8, !tbaa !19
  %25 = and i64 %24, 2
  %.not22 = icmp eq i64 %25, 0
  %26 = load i64, ptr @global_mask, align 8
  %27 = select i1 %.not22, i64 %26, i64 -1
  %.019 = and i64 %27, %22
  %28 = getelementptr inbounds nuw i8, ptr %.0.i, i64 8
  %29 = load i64, ptr %28, align 8, !tbaa !20
  %30 = getelementptr inbounds nuw i8, ptr %.0.i, i64 16
  %31 = load i64, ptr %30, align 8, !tbaa !21
  %32 = call i32 @ASN1_mbstring_ncopy(ptr noundef nonnull %spec.store.select, ptr noundef %1, i32 noundef %2, i32 noundef %3, i64 noundef %.019, i64 noundef %29, i64 noundef %31) #11
  br label %37

33:                                               ; preds = %ASN1_STRING_TABLE_get.exit
  %34 = load i64, ptr @global_mask, align 8, !tbaa !3
  %35 = and i64 %34, 10246
  %36 = call i32 @ASN1_mbstring_copy(ptr noundef nonnull %spec.store.select, ptr noundef %1, i32 noundef %2, i32 noundef %3, i64 noundef %35) #11
  br label %37

37:                                               ; preds = %33, %20
  %.0 = phi i32 [ %32, %20 ], [ %36, %33 ]
  %38 = icmp slt i32 %.0, 1
  br i1 %38, label %41, label %39

39:                                               ; preds = %37
  %40 = load ptr, ptr %spec.store.select, align 8, !tbaa !11
  br label %41

41:                                               ; preds = %37, %39
  %.020 = phi ptr [ %40, %39 ], [ null, %37 ]
  call void @llvm.lifetime.end.p0(i64 8, ptr nonnull %7) #11
  ret ptr %.020
}